target datalayout = "e-m:e-p270:32:32-p271:32:32-p272:64:64-i64:64-i128:128-f80:128-n8:16:32:64-S128"
target triple = "x86_64-pc-linux-gnu"

%"class.enki::TaskScheduler" = type <{ [3 x ptr], [3 x ptr], i32, [4 x i8], ptr, ptr, %"struct.std::atomic", %"struct.std::atomic", %"struct.std::atomic", i8, %"struct.std::atomic.0", %"struct.std::atomic.0", %"struct.std::atomic.0", i32, [4 x i8], ptr, ptr, i32, i8, [3 x i8], %"struct.enki::TaskSchedulerConfig", %"struct.std::atomic.0", [4 x i8] }>
%"struct.std::atomic" = type { %"struct.std::__atomic_base" }
%"struct.std::__atomic_base" = type { i8 }
%"struct.enki::TaskSchedulerConfig" = type { i32, i32, %"struct.enki::ProfilerCallbacks", %"struct.enki::CustomAllocator" }
%"struct.enki::ProfilerCallbacks" = type { ptr, ptr, ptr, ptr, ptr, ptr, ptr, ptr }
%"struct.enki::CustomAllocator" = type { ptr, ptr, ptr }
%"struct.std::atomic.0" = type { %"struct.std::__atomic_base.1" }
%"struct.std::__atomic_base.1" = type { i32 }
%"struct.enki::semaphoreid_t" = type { %union.sem_t }
%union.sem_t = type { i64, [24 x i8] }

@_ZN12_GLOBAL__N_17gc_FileE = internal global ptr @.str, align 8

; Function Attrs: inlinehint mustprogress nounwind uwtable
define linkonce_odr dso_local void @_ZN4enki15SemaphoreCreateERNS_13semaphoreid_tE(ptr noundef nonnull align 8 dereferenceable(32) %0) #3 comdat {
  %2 = alloca ptr, align 8
  %3 = alloca i32, align 4
  store ptr %0, ptr %2, align 8, !tbaa !106
  call void @llvm.lifetime.start.p0(i64 4, ptr %3) #14
  %4 = load ptr, ptr %2, align 8, !tbaa !106
  %5 = getelementptr inbounds nuw %"struct.enki::semaphoreid_t", ptr %4, i32 0, i32 0
  %6 = call i32 @sem_init(ptr noundef %5, i32 noundef 0, i32 noundef 0) #14
  store i32 %6, ptr %3, align 4, !tbaa !11
  call void @llvm.lifetime.end.p0(i64 4, ptr %3) #14
  ret void
}

; Function Attrs: mustprogress uwtable
define linkonce_odr dso_local noundef ptr @_ZN4enki13TaskScheduler5AllocINS_13semaphoreid_tEEEPT_PKci(ptr noundef nonnull align 8 dereferenceable(220) %0, ptr noundef %1, i32 noundef %2) #0 comdat align 2 {
  %4 = alloca ptr, align 8
  %5 = alloca ptr, align 8
  %6 = alloca i32, align 4
  %7 = alloca ptr, align 8
  store ptr %0, ptr %4, align 8, !tbaa !4
  store ptr %1, ptr %5, align 8, !tbaa !59
  store i32 %2, ptr %6, align 4, !tbaa !11
  %8 = load ptr, ptr %4, align 8
  call void @llvm.lifetime.start.p0(i64 8, ptr %7) #14
  %9 = getelementptr inbounds nuw %"class.enki::TaskScheduler", ptr %8, i32 0, i32 20
  %10 = getelementptr inbounds nuw %"struct.enki::TaskSchedulerConfig", ptr %9, i32 0, i32 3
  %11 = getelementptr inbounds nuw %"struct.enki::CustomAllocator", ptr %10, i32 0, i32 0
  %12 = load ptr, ptr %11, align 8, !tbaa !102
  %13 = getelementptr inbounds nuw %"class.enki::TaskScheduler", ptr %8, i32 0, i32 20
  %14 = getelementptr inbounds nuw %"struct.enki::TaskSchedulerConfig", ptr %13, i32 0, i32 3
  %15 = getelementptr inbounds nuw %"struct.enki::CustomAllocator", ptr %14, i32 0, i32 2
  %16 = load ptr, ptr %15, align 8, !tbaa !103
  %17 = load ptr, ptr %5, align 8, !tbaa !59
  %18 = load i32, ptr %6, align 4, !tbaa !11
  %19 = call noundef ptr %12(i64 noundef 8, i64 noundef 32, ptr noundef %16, ptr noundef %17, i32 noundef %18)
  store ptr %19, ptr %7, align 8, !tbaa !106
  %20 = load ptr, ptr %7, align 8, !tbaa !106
  call void @llvm.lifetime.end.p0(i64 8, ptr %7) #14
  ret ptr %20
}

; Function Attrs: mustprogress uwtable
define dso_local noundef ptr @_ZN4enki13TaskScheduler12SemaphoreNewEv(ptr noundef nonnull align 8 dereferenceable(220) %0) #0 align 2 {
  %2 = alloca ptr, align 8
  %3 = alloca ptr, align 8
  store ptr %0, ptr %2, align 8, !tbaa !4
  %4 = load ptr, ptr %2, align 8
  call void @llvm.lifetime.start.p0(i64 8, ptr %3) #14
  %5 = load ptr, ptr @_ZN12_GLOBAL__N_17gc_FileE, align 8, !tbaa !59
  %6 = call noundef ptr @_ZN4enki13TaskScheduler5AllocINS_13semaphoreid_tEEEPT_PKci(ptr noundef nonnull align 8 dereferenceable(220) %4, ptr noundef %5, i32 noundef 0)
  store ptr %6, ptr %3, align 8, !tbaa !106
  %7 = load ptr, ptr %3, align 8, !tbaa !106
  call void @_ZN4enki15SemaphoreCreateERNS_13semaphoreid_tE(ptr noundef nonnull align 8 dereferenceable(32) %7)
  %8 = load ptr, ptr %3, align 8, !tbaa !106
  call void @llvm.lifetime.end.p0(i64 8, ptr %3) #14
  ret ptr %8
}