; Function Attrs: mustprogress uwtable
define dso_local noundef ptr @_ZN4enki13TaskScheduler12SemaphoreNewEv(ptr noundef nonnull readonly align 8 captures(none) dereferenceable(220) %0) local_unnamed_addr #0 align 2 {
  %2 = getelementptr inbounds nuw i8, ptr %0, i64 192
  %3 = load ptr, ptr %2, align 8, !tbaa !83
  %4 = getelementptr inbounds nuw i8, ptr %0, i64 208
  %5 = load ptr, ptr %4, align 8, !tbaa !84
  %6 = tail call noundef ptr %3(i64 noundef 8, i64 noundef 32, ptr noundef %5, ptr noundef nonnull @.str, i32 noundef 0)
  %7 = tail call i32 @sem_init(ptr noundef nonnull align 8 dereferenceable(32) %6, i32 noundef 0, i32 noundef 0) #26
  ret ptr %6
}